; Function Attrs: mustprogress nofree norecurse nounwind willreturn uwtable
define void @_ZN5arrow10StopSource5tokenEv(ptr dead_on_unwind noalias writable writeonly sret(%"class.arrow::StopToken") align 8 captures(none) initializes((0, 16)) %0, ptr noundef nonnull readonly align 8 captures(none) dereferenceable(16) %1) local_unnamed_addr #4 align 2 personality ptr @__gxx_personality_v0 {
  %3 = load ptr, ptr %1, align 8, !tbaa !23
  %4 = getelementptr inbounds nuw i8, ptr %1, i64 8
  %5 = load ptr, ptr %4, align 8, !tbaa !14
  %.not.i.i.i = icmp eq ptr %5, null
  br i1 %.not.i.i.i, label %_ZNSt12__shared_ptrIN5arrow14StopSourceImplELN9__gnu_cxx12_Lock_policyE2EED2Ev.exit, label %6

6:                                                ; preds = %2
  %7 = getelementptr inbounds nuw i8, ptr %5, i64 8
  %8 = load i8, ptr @__libc_single_threaded, align 1, !tbaa !20
  %.not.i.i.i.i = icmp eq i8 %8, 0
  br i1 %.not.i.i.i.i, label %12, label %9

9:                                                ; preds = %6
  %10 = load i32, ptr %7, align 4, !tbaa !21
  %11 = add nsw i32 %10, 1
  store i32 %11, ptr %7, align 4, !tbaa !21
  br label %_ZNSt12__shared_ptrIN5arrow14StopSourceImplELN9__gnu_cxx12_Lock_policyE2EED2Ev.exit

12:                                               ; preds = %6
  %13 = atomicrmw volatile add ptr %7, i32 1 acq_rel, align 4
  br label %_ZNSt12__shared_ptrIN5arrow14StopSourceImplELN9__gnu_cxx12_Lock_policyE2EED2Ev.exit

_ZNSt12__shared_ptrIN5arrow14StopSourceImplELN9__gnu_cxx12_Lock_policyE2EED2Ev.exit: ; preds = %12, %9, %2
  store ptr %3, ptr %0, align 8, !tbaa !23
  %14 = getelementptr inbounds nuw i8, ptr %0, i64 8
  store ptr %5, ptr %14, align 8, !tbaa !14
  ret void
}